target datalayout = "e-m:e-p270:32:32-p271:32:32-p272:64:64-i64:64-i128:128-f80:128-n8:16:32:64-S128"
target triple = "x86_64-unknown-linux-gnu"

%"struct.bound_propagator::bound" = type { %class.mpq, double, i32, i32, %union.anon, ptr }
%class.mpq = type { %class.mpz, %class.mpz }
%class.mpz = type { i32, i8, ptr }
%union.anon = type { i32 }
%class.bound_propagator = type { ptr, ptr, %class.linear_equation_manager, %class.svector.4, %class.svector.0, %class.svector.0, %class.ptr_vector, %class.ptr_vector, %class.vector.7, %class.svector.8, i32, %class.svector.2, %class.svector.2, %class.svector.2, i32, i32, %class.mpq, %class.svector.10, %class.svector.2, i32, double, double, double, i32, i32, i32, %class.svector.12 }
%class.linear_equation_manager = type { ptr, ptr, %class.numeral_buffer, %class.numeral_buffer, %class.svector.0, %class.svector.2 }
%class.numeral_buffer = type { ptr, %class.svector }
%class.svector = type { %class.vector }
%class.vector = type { ptr }
%class.svector.4 = type { %class.vector.5 }
%class.vector.5 = type { ptr }
%class.svector.0 = type { %class.vector.1 }
%class.vector.1 = type { ptr }
%class.ptr_vector = type { %class.vector.6 }
%class.vector.6 = type { ptr }
%class.vector.7 = type { ptr }
%class.svector.8 = type { %class.vector.9 }
%class.vector.9 = type { ptr }
%class.svector.10 = type { %class.vector.11 }
%class.vector.11 = type { ptr }
%class.svector.2 = type { %class.vector.3 }
%class.vector.3 = type { ptr }
%class.svector.12 = type { %class.vector.13 }
%class.vector.13 = type { ptr }

; Function Attrs: mustprogress nounwind uwtable
define linkonce_odr hidden noundef zeroext i1 @_ZN11mpz_managerILb0EE8is_smallERK3mpz(ptr noundef nonnull align 8 dereferenceable(16) %a) #5 comdat align 2 {
entry:
  %a.addr = alloca ptr, align 8
  store ptr %a, ptr %a.addr, align 8
  %0 = load ptr, ptr %a.addr, align 8
  %m_kind = getelementptr inbounds %class.mpz, ptr %0, i32 0, i32 1
  %bf.load = load i8, ptr %m_kind, align 4
  %bf.clear = and i8 %bf.load, 1
  %bf.cast = zext i8 %bf.clear to i32
  %cmp = icmp eq i32 %bf.cast, 0
  ret i1 %cmp
}

; Function Attrs: mustprogress uwtable
define linkonce_odr hidden void @_ZN11mpz_managerILb0EE3setER3mpzRKS1_(ptr noundef nonnull align 8 dereferenceable(600) %this, ptr noundef nonnull align 8 dereferenceable(16) %target, ptr noundef nonnull align 8 dereferenceable(16) %source) #4 comdat align 2 {
entry:
  %this.addr = alloca ptr, align 8
  %target.addr = alloca ptr, align 8
  %source.addr = alloca ptr, align 8
  store ptr %this, ptr %this.addr, align 8
  store ptr %target, ptr %target.addr, align 8
  store ptr %source, ptr %source.addr, align 8
  %this1 = load ptr, ptr %this.addr, align 8
  %0 = load ptr, ptr %source.addr, align 8
  %call = call noundef zeroext i1 @_ZN11mpz_managerILb0EE8is_smallERK3mpz(ptr noundef nonnull align 8 dereferenceable(16) %0)
  br i1 %call, label %if.then, label %if.else

if.then:                                          ; preds = %entry
  %1 = load ptr, ptr %source.addr, align 8
  %m_val = getelementptr inbounds %class.mpz, ptr %1, i32 0, i32 0
  %2 = load i32, ptr %m_val, align 8
  %3 = load ptr, ptr %target.addr, align 8
  %m_val2 = getelementptr inbounds %class.mpz, ptr %3, i32 0, i32 0
  store i32 %2, ptr %m_val2, align 8
  %4 = load ptr, ptr %target.addr, align 8
  %m_kind = getelementptr inbounds %class.mpz, ptr %4, i32 0, i32 1
  %bf.load = load i8, ptr %m_kind, align 4
  %bf.clear = and i8 %bf.load, -2
  %bf.set = or i8 %bf.clear, 0
  store i8 %bf.set, ptr %m_kind, align 4
  br label %if.end

if.else:                                          ; preds = %entry
  %5 = load ptr, ptr %target.addr, align 8
  %6 = load ptr, ptr %source.addr, align 8
  call void @_ZN11mpz_managerILb0EE7big_setER3mpzRKS1_(ptr noundef nonnull align 8 dereferenceable(600) %this1, ptr noundef nonnull align 8 dereferenceable(16) %5, ptr noundef nonnull align 8 dereferenceable(16) %6)
  br label %if.end

if.end:                                           ; preds = %if.else, %if.then
  ret void
}

; Function Attrs: mustprogress uwtable
define linkonce_odr hidden void @_ZN11mpq_managerILb0EE3setER3mpzRKS1_(ptr noundef nonnull align 8 dereferenceable(728) %this, ptr noundef nonnull align 8 dereferenceable(16) %target, ptr noundef nonnull align 8 dereferenceable(16) %source) #4 comdat align 2 {
entry:
  %this.addr = alloca ptr, align 8
  %target.addr = alloca ptr, align 8
  %source.addr = alloca ptr, align 8
  store ptr %this, ptr %this.addr, align 8
  store ptr %target, ptr %target.addr, align 8
  store ptr %source, ptr %source.addr, align 8
  %this1 = load ptr, ptr %this.addr, align 8
  %0 = load ptr, ptr %target.addr, align 8
  %1 = load ptr, ptr %source.addr, align 8
  call void @_ZN11mpz_managerILb0EE3setER3mpzRKS1_(ptr noundef nonnull align 8 dereferenceable(600) %this1, ptr noundef nonnull align 8 dereferenceable(16) %0, ptr noundef nonnull align 8 dereferenceable(16) %1)
  ret void
}

; Function Attrs: mustprogress uwtable
define linkonce_odr hidden void @_ZN11mpq_managerILb0EE3setER3mpqRKS1_(ptr noundef nonnull align 8 dereferenceable(728) %this, ptr noundef nonnull align 8 dereferenceable(32) %target, ptr noundef nonnull align 8 dereferenceable(32) %source) #4 comdat align 2 {
entry:
  %this.addr = alloca ptr, align 8
  %target.addr = alloca ptr, align 8
  %source.addr = alloca ptr, align 8
  store ptr %this, ptr %this.addr, align 8
  store ptr %target, ptr %target.addr, align 8
  store ptr %source, ptr %source.addr, align 8
  %this1 = load ptr, ptr %this.addr, align 8
  %0 = load ptr, ptr %target.addr, align 8
  %m_num = getelementptr inbounds %class.mpq, ptr %0, i32 0, i32 0
  %1 = load ptr, ptr %source.addr, align 8
  %m_num2 = getelementptr inbounds %class.mpq, ptr %1, i32 0, i32 0
  call void @_ZN11mpq_managerILb0EE3setER3mpzRKS1_(ptr noundef nonnull align 8 dereferenceable(728) %this1, ptr noundef nonnull align 8 dereferenceable(16) %m_num, ptr noundef nonnull align 8 dereferenceable(16) %m_num2)
  %2 = load ptr, ptr %target.addr, align 8
  %m_den = getelementptr inbounds %class.mpq, ptr %2, i32 0, i32 1
  %3 = load ptr, ptr %source.addr, align 8
  %m_den3 = getelementptr inbounds %class.mpq, ptr %3, i32 0, i32 1
  call void @_ZN11mpq_managerILb0EE3setER3mpzRKS1_(ptr noundef nonnull align 8 dereferenceable(728) %this1, ptr noundef nonnull align 8 dereferenceable(16) %m_den, ptr noundef nonnull align 8 dereferenceable(16) %m_den3)
  ret void
}

; Function Attrs: mustprogress nounwind uwtable
define linkonce_odr hidden noundef nonnull align 8 dereferenceable(8) ptr @_ZNK6vectorIPN16bound_propagator5boundELb0EjEixEj(ptr noundef nonnull align 8 dereferenceable(8) %this, i32 noundef %idx) #5 comdat align 2 {
entry:
  %this.addr = alloca ptr, align 8
  %idx.addr = alloca i32, align 4
  store ptr %this, ptr %this.addr, align 8
  store i32 %idx, ptr %idx.addr, align 4
  %this1 = load ptr, ptr %this.addr, align 8
  %m_data = getelementptr inbounds %class.vector.6, ptr %this1, i32 0, i32 0
  %0 = load ptr, ptr %m_data, align 8
  %1 = load i32, ptr %idx.addr, align 4
  %idxprom = zext i32 %1 to i64
  %arrayidx = getelementptr inbounds ptr, ptr %0, i64 %idxprom
  ret ptr %arrayidx
}

; Function Attrs: mustprogress uwtable
define hidden noundef zeroext i1 @_ZNK16bound_propagator5lowerEjR3mpqRbRj(ptr noundef nonnull align 8 dereferenceable(280) %this, i32 noundef %x, ptr noundef nonnull align 8 dereferenceable(32) %k, ptr noundef nonnull align 1 dereferenceable(1) %strict, ptr noundef nonnull align 4 dereferenceable(4) %ts) #4 align 2 {
entry:
  %retval = alloca i1, align 1
  %this.addr = alloca ptr, align 8
  %x.addr = alloca i32, align 4
  %k.addr = alloca ptr, align 8
  %strict.addr = alloca ptr, align 8
  %ts.addr = alloca ptr, align 8
  %b = alloca ptr, align 8
  store ptr %this, ptr %this.addr, align 8
  store i32 %x, ptr %x.addr, align 4
  store ptr %k, ptr %k.addr, align 8
  store ptr %strict, ptr %strict.addr, align 8
  store ptr %ts, ptr %ts.addr, align 8
  %this1 = load ptr, ptr %this.addr, align 8
  %m_lowers = getelementptr inbounds %class.bound_propagator, ptr %this1, i32 0, i32 6
  %0 = load i32, ptr %x.addr, align 4
  %call = call noundef nonnull align 8 dereferenceable(8) ptr @_ZNK6vectorIPN16bound_propagator5boundELb0EjEixEj(ptr noundef nonnull align 8 dereferenceable(8) %m_lowers, i32 noundef %0)
  %1 = load ptr, ptr %call, align 8
  store ptr %1, ptr %b, align 8
  %2 = load ptr, ptr %b, align 8
  %tobool = icmp ne ptr %2, null
  br i1 %tobool, label %if.end, label %if.then

if.then:                                          ; preds = %entry
  store i1 false, ptr %retval, align 1
  br label %return

if.end:                                           ; preds = %entry
  %m = getelementptr inbounds %class.bound_propagator, ptr %this1, i32 0, i32 0
  %3 = load ptr, ptr %m, align 8
  %4 = load ptr, ptr %k.addr, align 8
  %5 = load ptr, ptr %b, align 8
  %m_k = getelementptr inbounds %"struct.bound_propagator::bound", ptr %5, i32 0, i32 0
  call void @_ZN11mpq_managerILb0EE3setER3mpqRKS1_(ptr noundef nonnull align 8 dereferenceable(728) %3, ptr noundef nonnull align 8 dereferenceable(32) %4, ptr noundef nonnull align 8 dereferenceable(32) %m_k)
  %6 = load ptr, ptr %b, align 8
  %m_strict = getelementptr inbounds %"struct.bound_propagator::bound", ptr %6, i32 0, i32 2
  %bf.load = load i32, ptr %m_strict, align 8
  %bf.lshr = lshr i32 %bf.load, 1
  %bf.clear = and i32 %bf.lshr, 1
  %tobool2 = icmp ne i32 %bf.clear, 0
  %7 = load ptr, ptr %strict.addr, align 8
  %frombool = zext i1 %tobool2 to i8
  store i8 %frombool, ptr %7, align 1
  %8 = load ptr, ptr %b, align 8
  %m_timestamp = getelementptr inbounds %"struct.bound_propagator::bound", ptr %8, i32 0, i32 3
  %9 = load i32, ptr %m_timestamp, align 4
  %10 = load ptr, ptr %ts.addr, align 8
  store i32 %9, ptr %10, align 4
  store i1 true, ptr %retval, align 1
  br label %return

return:                                           ; preds = %if.end, %if.then
  %11 = load i1, ptr %retval, align 1
  ret i1 %11
}