; Function Attrs: mustprogress uwtable
define hidden noundef zeroext i1 @_ZNK16bound_propagator5lowerEjR3mpqRbRj(ptr nocapture noundef nonnull readonly align 8 dereferenceable(280) %this, i32 noundef %x, ptr noundef nonnull align 8 dereferenceable(32) %k, ptr nocapture noundef nonnull writeonly align 1 dereferenceable(1) %strict, ptr nocapture noundef nonnull writeonly align 4 dereferenceable(4) %ts) local_unnamed_addr #3 align 2 {
entry:
  %m_lowers = getelementptr inbounds i8, ptr %this, i64 104
  %0 = load ptr, ptr %m_lowers, align 8
  %idxprom.i = zext i32 %x to i64
  %arrayidx.i = getelementptr inbounds ptr, ptr %0, i64 %idxprom.i
  %1 = load ptr, ptr %arrayidx.i, align 8
  %tobool.not = icmp ne ptr %1, null
  br i1 %tobool.not, label %if.end, label %return

if.end:                                           ; preds = %entry
  %2 = load ptr, ptr %this, align 8
  %m_kind.i.i.i.i = getelementptr inbounds i8, ptr %1, i64 4
  %bf.load.i.i.i.i = load i8, ptr %m_kind.i.i.i.i, align 4
  %bf.clear.i.i.i.i = and i8 %bf.load.i.i.i.i, 1
  %cmp.i.i.i.i = icmp eq i8 %bf.clear.i.i.i.i, 0
  br i1 %cmp.i.i.i.i, label %if.then.i.i.i, label %if.else.i.i.i

if.then.i.i.i:                                    ; preds = %if.end
  %3 = load i32, ptr %1, align 8
  store i32 %3, ptr %k, align 8
  %m_kind.i.i.i = getelementptr inbounds i8, ptr %k, i64 4
  %bf.load.i.i.i = load i8, ptr %m_kind.i.i.i, align 4
  %bf.clear.i.i.i = and i8 %bf.load.i.i.i, -2
  store i8 %bf.clear.i.i.i, ptr %m_kind.i.i.i, align 4
  br label %_ZN11mpq_managerILb0EE3setER3mpzRKS1_.exit.i

if.else.i.i.i:                                    ; preds = %if.end
  tail call void @_ZN11mpz_managerILb0EE7big_setER3mpzRKS1_(ptr noundef nonnull align 8 dereferenceable(600) %2, ptr noundef nonnull align 8 dereferenceable(16) %k, ptr noundef nonnull align 8 dereferenceable(16) %1)
  br label %_ZN11mpq_managerILb0EE3setER3mpzRKS1_.exit.i

_ZN11mpq_managerILb0EE3setER3mpzRKS1_.exit.i:     ; preds = %if.else.i.i.i, %if.then.i.i.i
  %m_den.i = getelementptr inbounds i8, ptr %k, i64 16
  %m_den3.i = getelementptr inbounds i8, ptr %1, i64 16
  %m_kind.i.i.i3.i = getelementptr inbounds i8, ptr %1, i64 20
  %bf.load.i.i.i4.i = load i8, ptr %m_kind.i.i.i3.i, align 4
  %bf.clear.i.i.i5.i = and i8 %bf.load.i.i.i4.i, 1
  %cmp.i.i.i6.i = icmp eq i8 %bf.clear.i.i.i5.i, 0
  br i1 %cmp.i.i.i6.i, label %if.then.i.i8.i, label %if.else.i.i7.i

if.then.i.i8.i:                                   ; preds = %_ZN11mpq_managerILb0EE3setER3mpzRKS1_.exit.i
  %4 = load i32, ptr %m_den3.i, align 8
  store i32 %4, ptr %m_den.i, align 8
  %m_kind.i.i9.i = getelementptr inbounds i8, ptr %k, i64 20
  %bf.load.i.i10.i = load i8, ptr %m_kind.i.i9.i, align 4
  %bf.clear.i.i11.i = and i8 %bf.load.i.i10.i, -2
  store i8 %bf.clear.i.i11.i, ptr %m_kind.i.i9.i, align 4
  br label %_ZN11mpq_managerILb0EE3setER3mpqRKS1_.exit

if.else.i.i7.i:                                   ; preds = %_ZN11mpq_managerILb0EE3setER3mpzRKS1_.exit.i
  tail call void @_ZN11mpz_managerILb0EE7big_setER3mpzRKS1_(ptr noundef nonnull align 8 dereferenceable(600) %2, ptr noundef nonnull align 8 dereferenceable(16) %m_den.i, ptr noundef nonnull align 8 dereferenceable(16) %m_den3.i)
  br label %_ZN11mpq_managerILb0EE3setER3mpqRKS1_.exit

_ZN11mpq_managerILb0EE3setER3mpqRKS1_.exit:       ; preds = %if.then.i.i8.i, %if.else.i.i7.i
  %m_strict = getelementptr inbounds i8, ptr %1, i64 40
  %bf.load = load i32, ptr %m_strict, align 8
  %5 = trunc i32 %bf.load to i8
  %6 = lshr i8 %5, 1
  %frombool = and i8 %6, 1
  store i8 %frombool, ptr %strict, align 1
  %m_timestamp = getelementptr inbounds i8, ptr %1, i64 44
  %7 = load i32, ptr %m_timestamp, align 4
  store i32 %7, ptr %ts, align 4
  br label %return

return:                                           ; preds = %entry, %_ZN11mpq_managerILb0EE3setER3mpqRKS1_.exit
  ret i1 %tobool.not
}